; Function Attrs: nofree norecurse nosync nounwind memory(read, inaccessiblemem: none) uwtable
define i32 @Cec_ManCountNonConstOutputs(ptr noundef readonly captures(none) %0) local_unnamed_addr #2 {
  %2 = getelementptr inbounds nuw i8, ptr %0, i64 192
  %3 = load ptr, ptr %2, align 8
  %4 = icmp eq ptr %3, null
  br i1 %4, label %.critedge, label %.preheader

.preheader:                                       ; preds = %1
  %5 = getelementptr i8, ptr %0, i64 16
  %.val = load i32, ptr %5, align 8
  %6 = getelementptr i8, ptr %0, i64 72
  %.val15 = load ptr, ptr %6, align 8
  %7 = getelementptr i8, ptr %.val15, i64 4
  %.val15.val = load i32, ptr %7, align 4
  %8 = sub nsw i32 %.val15.val, %.val
  %9 = icmp sgt i32 %8, 0
  br i1 %9, label %.lr.ph, label %.critedge

.lr.ph:                                           ; preds = %.preheader
  %10 = getelementptr i8, ptr %0, i64 32
  %.val16 = load ptr, ptr %10, align 8
  %.not = icmp eq ptr %.val16, null
  br i1 %.not, label %.critedge, label %.lr.ph.split

.lr.ph.split:                                     ; preds = %.lr.ph
  %11 = getelementptr i8, ptr %.val15, i64 8
  %.val17.val = load ptr, ptr %11, align 8
  %wide.trip.count = zext nneg i32 %8 to i64
  br label %12

12:                                               ; preds = %.lr.ph.split, %12
  %indvars.iv = phi i64 [ 0, %.lr.ph.split ], [ %indvars.iv.next, %12 ]
  %.022 = phi i32 [ 0, %.lr.ph.split ], [ %spec.select, %12 ]
  %13 = getelementptr inbounds nuw i32, ptr %.val17.val, i64 %indvars.iv
  %14 = load i32, ptr %13, align 4
  %15 = sext i32 %14 to i64
  %16 = getelementptr inbounds %struct.Gia_Obj_t_, ptr %.val16, i64 %15
  %.val3.i = load i64, ptr %16, align 4
  %17 = trunc i64 %.val3.i to i32
  %18 = and i32 %17, 536870911
  %19 = sub nsw i32 %14, %18
  %20 = sext i32 %19 to i64
  %21 = getelementptr inbounds %struct.Gia_Rpr_t_, ptr %3, i64 %20
  %22 = load i32, ptr %21, align 4
  %23 = and i32 %22, 268435455
  %.not20 = icmp ne i32 %23, 0
  %24 = zext i1 %.not20 to i32
  %spec.select = add nuw nsw i32 %.022, %24
  %indvars.iv.next = add nuw nsw i64 %indvars.iv, 1
  %exitcond.not = icmp eq i64 %indvars.iv.next, %wide.trip.count
  br i1 %exitcond.not, label %.critedge, label %12, !llvm.loop !24

.critedge:                                        ; preds = %12, %.preheader, %.lr.ph, %1
  %.012 = phi i32 [ -1, %1 ], [ 0, %.preheader ], [ 0, %.lr.ph ], [ %spec.select, %12 ]
  ret i32 %.012
}